target datalayout = "e-m:e-p270:32:32-p271:32:32-p272:64:64-i64:64-i128:128-f80:128-n8:16:32:64-S128"
target triple = "x86_64-pc-linux-gnu"

%struct.dt_imageio_xcf_t = type { %struct.dt_imageio_module_data_t, i32 }
%struct.dt_imageio_module_data_t = type { i32, i32, i32, i32, [128 x i8], i32 }

; Function Attrs: nounwind uwtable
define i32 @levels(ptr noundef %0) #0 {
  %2 = alloca ptr, align 8
  %3 = alloca i32, align 4
  %4 = alloca i32, align 4
  store ptr %0, ptr %2, align 8, !tbaa !6
  call void @llvm.lifetime.start.p0(i64 4, ptr %3) #12
  %5 = load ptr, ptr %2, align 8, !tbaa !6
  %6 = getelementptr inbounds nuw %struct.dt_imageio_xcf_t, ptr %5, i32 0, i32 1
  %7 = load i32, ptr %6, align 4, !tbaa !67
  store i32 %7, ptr %3, align 4, !tbaa !14
  call void @llvm.lifetime.start.p0(i64 4, ptr %4) #12
  store i32 256, ptr %4, align 4, !tbaa !14
  %8 = load i32, ptr %3, align 4, !tbaa !14
  %9 = icmp eq i32 %8, 8
  br i1 %9, label %10, label %13

10:                                               ; preds = %1
  %11 = load i32, ptr %4, align 4, !tbaa !14
  %12 = or i32 %11, 0
  store i32 %12, ptr %4, align 4, !tbaa !14
  br label %27

13:                                               ; preds = %1
  %14 = load i32, ptr %3, align 4, !tbaa !14
  %15 = icmp eq i32 %14, 16
  br i1 %15, label %16, label %19

16:                                               ; preds = %13
  %17 = load i32, ptr %4, align 4, !tbaa !14
  %18 = or i32 %17, 2
  store i32 %18, ptr %4, align 4, !tbaa !14
  br label %26

19:                                               ; preds = %13
  %20 = load i32, ptr %3, align 4, !tbaa !14
  %21 = icmp eq i32 %20, 32
  br i1 %21, label %22, label %25

22:                                               ; preds = %19
  %23 = load i32, ptr %4, align 4, !tbaa !14
  %24 = or i32 %23, 4
  store i32 %24, ptr %4, align 4, !tbaa !14
  br label %25

25:                                               ; preds = %22, %19
  br label %26

26:                                               ; preds = %25, %16
  br label %27

27:                                               ; preds = %26, %10
  %28 = load i32, ptr %4, align 4, !tbaa !14
  call void @llvm.lifetime.end.p0(i64 4, ptr %4) #12
  call void @llvm.lifetime.end.p0(i64 4, ptr %3) #12
  ret i32 %28
}