; Function Attrs: mustprogress nofree norecurse nosync nounwind willreturn memory(argmem: read) uwtable
define range(i32 256, 261) i32 @levels(ptr noundef readonly captures(none) %0) local_unnamed_addr #13 {
  %2 = getelementptr inbounds nuw i8, ptr %0, i64 148
  %3 = load i32, ptr %2, align 4, !tbaa !17
  %switch.selectcmp = icmp eq i32 %3, 16
  %switch.select = select i1 %switch.selectcmp, i32 258, i32 256
  %switch.selectcmp8 = icmp eq i32 %3, 32
  %switch.select9 = select i1 %switch.selectcmp8, i32 260, i32 %switch.select
  ret i32 %switch.select9
}